target datalayout = "e-m:e-p270:32:32-p271:32:32-p272:64:64-i64:64-i128:128-f80:128-n8:16:32:64-S128"
target triple = "x86_64-pc-linux-gnu"

%struct.jit_State = type { %struct.GCtrace, ptr, ptr, ptr, ptr, ptr, ptr, i32, i32, i32, i8, i8, %struct.IRType1, i8, %struct.FoldState, ptr, i32, i32, i32, i32, i32, i32, i32, [1 x i32], [5 x %union.TValue], [3 x %union.TValue], ptr, i32, i32, i32, i32, ptr, ptr, i32, i32, i8, ptr, i32, i32, i16, [101 x i16], [258 x i32], [15 x i32], [16 x ptr], [64 x %struct.HotPenalty], i32, [16 x %struct.BPropEntry], i32, %struct.ScEvEntry, ptr, i32, i32, i32, ptr, i32, i32, ptr, ptr, ptr, i64, i64, %union.TValue, ptr, i32, i32 }
%struct.GCtrace = type { %struct.GCRef, i8, i8, i16, i32, i32, %struct.GCRef, ptr, i32, i32, ptr, ptr, %struct.GCRef, %struct.MRef, i32, i32, ptr, i32, i16, i16, i16, i16, i16, i16, i16, i8, i8, i8, i8 }
%struct.GCRef = type { i64 }
%struct.MRef = type { i64 }
%struct.IRType1 = type { i8 }
%struct.FoldState = type { %union.IRIns, [2 x %union.IRIns], [2 x %union.IRIns] }
%union.IRIns = type { %struct.GCRef }
%struct.HotPenalty = type { %struct.MRef, i16, i16 }
%struct.BPropEntry = type { i16, i16, i32 }
%struct.ScEvEntry = type { %struct.MRef, i16, i16, i16, i16, %struct.IRType1, i8 }
%union.TValue = type { i64 }
%struct.anon.0 = type { i32, %struct.IRType1, i8, i8, i8 }
%struct.anon = type { i16, i16, i16, i16 }

; Function Attrs: alwaysinline nounwind uwtable
define internal i32 @lj_ir_knum(ptr noundef %0, double noundef %1) #6 {
  %3 = alloca ptr, align 8
  %4 = alloca double, align 8
  %5 = alloca %union.TValue, align 8
  store ptr %0, ptr %3, align 8, !tbaa !4
  store double %1, ptr %4, align 8, !tbaa !45
  call void @llvm.lifetime.start.p0(i64 8, ptr %5) #8
  %6 = load double, ptr %4, align 8, !tbaa !45
  store double %6, ptr %5, align 8, !tbaa !29
  %7 = load ptr, ptr %3, align 8, !tbaa !4
  %8 = load i64, ptr %5, align 8, !tbaa !29
  %9 = call i32 @lj_ir_knum_u64(ptr noundef %7, i64 noundef %8)
  call void @llvm.lifetime.end.p0(i64 8, ptr %5) #8
  ret i32 %9
}

; Function Attrs: nounwind uwtable
define internal i32 @fold_simplify_nummuldiv_negk(ptr noundef %0) #0 {
  %2 = alloca i32, align 4
  %3 = alloca ptr, align 8
  store ptr %0, ptr %3, align 8, !tbaa !4
  %4 = load ptr, ptr %3, align 8, !tbaa !4
  %5 = getelementptr inbounds nuw %struct.jit_State, ptr %4, i32 0, i32 14
  %6 = getelementptr inbounds nuw %struct.FoldState, ptr %5, i32 0, i32 1
  %7 = getelementptr inbounds [2 x %union.IRIns], ptr %6, i64 0, i64 0
  %8 = getelementptr inbounds nuw %struct.anon.0, ptr %7, i32 0, i32 1
  %9 = getelementptr inbounds nuw %struct.IRType1, ptr %8, i32 0, i32 0
  %10 = load i8, ptr %9, align 4, !tbaa !29
  %11 = zext i8 %10 to i32
  %12 = and i32 %11, 64
  %13 = icmp ne i32 %12, 0
  br i1 %13, label %14, label %15

14:                                               ; preds = %1
  store i32 0, ptr %2, align 4
  br label %39

15:                                               ; preds = %1
  %16 = load ptr, ptr %3, align 8, !tbaa !4
  %17 = getelementptr inbounds nuw %struct.jit_State, ptr %16, i32 0, i32 14
  %18 = getelementptr inbounds nuw %struct.FoldState, ptr %17, i32 0, i32 1
  %19 = getelementptr inbounds [2 x %union.IRIns], ptr %18, i64 0, i64 0
  %20 = getelementptr inbounds nuw %struct.anon, ptr %19, i32 0, i32 0
  %21 = load i16, ptr %20, align 8, !tbaa !29
  %22 = load ptr, ptr %3, align 8, !tbaa !4
  %23 = getelementptr inbounds nuw %struct.jit_State, ptr %22, i32 0, i32 14
  %24 = getelementptr inbounds nuw %struct.FoldState, ptr %23, i32 0, i32 0
  %25 = getelementptr inbounds nuw %struct.anon, ptr %24, i32 0, i32 0
  store i16 %21, ptr %25, align 8, !tbaa !29
  %26 = load ptr, ptr %3, align 8, !tbaa !4
  %27 = load ptr, ptr %3, align 8, !tbaa !4
  %28 = getelementptr inbounds nuw %struct.jit_State, ptr %27, i32 0, i32 14
  %29 = getelementptr inbounds nuw %struct.FoldState, ptr %28, i32 0, i32 2
  %30 = getelementptr inbounds [2 x %union.IRIns], ptr %29, i64 0, i64 1
  %31 = load double, ptr %30, align 8, !tbaa !29
  %32 = fneg double %31
  %33 = call i32 @lj_ir_knum(ptr noundef %26, double noundef %32)
  %34 = trunc i32 %33 to i16
  %35 = load ptr, ptr %3, align 8, !tbaa !4
  %36 = getelementptr inbounds nuw %struct.jit_State, ptr %35, i32 0, i32 14
  %37 = getelementptr inbounds nuw %struct.FoldState, ptr %36, i32 0, i32 0
  %38 = getelementptr inbounds nuw %struct.anon, ptr %37, i32 0, i32 1
  store i16 %34, ptr %38, align 2, !tbaa !29
  store i32 1, ptr %2, align 4
  br label %39

39:                                               ; preds = %15, %14
  %40 = load i32, ptr %2, align 4
  ret i32 %40
}