; Function Attrs: nounwind uwtable
define internal range(i32 0, 2) i32 @fold_simplify_nummuldiv_negk(ptr noundef %0) #0 {
  %2 = getelementptr inbounds nuw i8, ptr %0, i64 196
  %3 = load i8, ptr %2, align 4, !tbaa !28
  %4 = and i8 %3, 64
  %.not = icmp eq i8 %4, 0
  br i1 %.not, label %5, label %16

5:                                                ; preds = %1
  %6 = getelementptr inbounds nuw i8, ptr %0, i64 192
  %7 = getelementptr inbounds nuw i8, ptr %0, i64 184
  %8 = load i16, ptr %6, align 8, !tbaa !28
  store i16 %8, ptr %7, align 8, !tbaa !28
  %9 = getelementptr inbounds nuw i8, ptr %0, i64 216
  %10 = load double, ptr %9, align 8, !tbaa !28
  %11 = fneg double %10
  %12 = bitcast double %11 to i64
  %13 = tail call i32 @lj_ir_knum_u64(ptr noundef nonnull %0, i64 noundef %12) #12
  %14 = trunc i32 %13 to i16
  %15 = getelementptr inbounds nuw i8, ptr %0, i64 186
  store i16 %14, ptr %15, align 2, !tbaa !28
  br label %16

16:                                               ; preds = %1, %5
  %.0 = phi i32 [ 1, %5 ], [ 0, %1 ]
  ret i32 %.0
}